target datalayout = "e-m:e-p270:32:32-p271:32:32-p272:64:64-i64:64-i128:128-f80:128-n8:16:32:64-S128"
target triple = "x86_64-unknown-linux-gnu"

%class.b2World = type <{ %class.b2BlockAllocator, %class.b2StackAllocator, %class.b2ContactManager, ptr, ptr, i32, i32, %struct.b2Vec2, i8, [7 x i8], ptr, ptr, float, i8, i8, i8, i8, i8, i8, i8, i8, %struct.b2Profile, [4 x i8] }>
%class.b2BlockAllocator = type { ptr, i32, i32, [14 x ptr] }
%class.b2StackAllocator = type <{ [102400 x i8], i32, i32, i32, [4 x i8], [32 x %struct.b2StackEntry], i32, [4 x i8] }>
%struct.b2StackEntry = type { ptr, i32, i8 }
%class.b2ContactManager = type { %class.b2BroadPhase, ptr, i32, ptr, ptr, ptr }
%class.b2BroadPhase = type <{ %class.b2DynamicTree, i32, [4 x i8], ptr, i32, i32, ptr, i32, i32, i32, [4 x i8] }>
%class.b2DynamicTree = type { i32, ptr, i32, i32, i32, i32 }
%struct.b2Vec2 = type { float, float }
%struct.b2Profile = type { float, float, float, float, float, float, float, float }
%class.b2Body = type { i32, i16, i32, %struct.b2Transform, %struct.b2Sweep, %struct.b2Vec2, float, %struct.b2Vec2, float, ptr, ptr, ptr, ptr, i32, ptr, ptr, float, float, float, float, float, float, float, float, %struct.b2BodyUserData }
%struct.b2Transform = type { %struct.b2Vec2, %struct.b2Rot }
%struct.b2Rot = type { float, float }
%struct.b2Sweep = type { %struct.b2Vec2, %struct.b2Vec2, %struct.b2Vec2, float, float, float }
%struct.b2BodyUserData = type { i64 }
%class.b2Fixture = type { float, ptr, ptr, ptr, float, float, float, ptr, i32, %struct.b2Filter, i8, %struct.b2FixtureUserData }
%struct.b2Filter = type { i16, i16, i16 }
%struct.b2FixtureUserData = type { i64 }
%struct.b2JointEdge = type { ptr, ptr, ptr, ptr }
%struct.b2ContactEdge = type { ptr, ptr, ptr, ptr }

; Function Attrs: mustprogress nounwind uwtable
define linkonce_odr hidden noundef zeroext i1 @_ZNK7b2World8IsLockedEv(ptr noundef nonnull align 8 dereferenceable(103284) %this) #5 comdat align 2 {
entry:
  %this.addr = alloca ptr, align 8
  store ptr %this, ptr %this.addr, align 8
  %this1 = load ptr, ptr %this.addr, align 8
  %m_locked = getelementptr inbounds %class.b2World, ptr %this1, i32 0, i32 14
  %0 = load i8, ptr %m_locked, align 1
  %tobool = trunc i8 %0 to i1
  ret i1 %tobool
}

; Function Attrs: mustprogress uwtable
define void @_ZN7b2World11DestroyBodyEP6b2Body(ptr noundef nonnull align 8 dereferenceable(103284) %this, ptr noundef %b) #0 align 2 {
entry:
  %this.addr = alloca ptr, align 8
  %b.addr = alloca ptr, align 8
  %je = alloca ptr, align 8
  %je0 = alloca ptr, align 8
  %ce = alloca ptr, align 8
  %ce0 = alloca ptr, align 8
  %f = alloca ptr, align 8
  %f0 = alloca ptr, align 8
  store ptr %this, ptr %this.addr, align 8
  store ptr %b, ptr %b.addr, align 8
  %this1 = load ptr, ptr %this.addr, align 8
  %call = call noundef zeroext i1 @_ZNK7b2World8IsLockedEv(ptr noundef nonnull align 8 dereferenceable(103284) %this1)
  br i1 %call, label %if.then, label %if.end

if.then:                                          ; preds = %entry
  br label %return

if.end:                                           ; preds = %entry
  %0 = load ptr, ptr %b.addr, align 8
  %m_jointList = getelementptr inbounds %class.b2Body, ptr %0, i32 0, i32 14
  %1 = load ptr, ptr %m_jointList, align 8
  store ptr %1, ptr %je, align 8
  br label %while.cond

while.cond:                                       ; preds = %if.end5, %if.end
  %2 = load ptr, ptr %je, align 8
  %tobool = icmp ne ptr %2, null
  br i1 %tobool, label %while.body, label %while.end

while.body:                                       ; preds = %while.cond
  %3 = load ptr, ptr %je, align 8
  store ptr %3, ptr %je0, align 8
  %4 = load ptr, ptr %je, align 8
  %next = getelementptr inbounds %struct.b2JointEdge, ptr %4, i32 0, i32 3
  %5 = load ptr, ptr %next, align 8
  store ptr %5, ptr %je, align 8
  %m_destructionListener = getelementptr inbounds %class.b2World, ptr %this1, i32 0, i32 10
  %6 = load ptr, ptr %m_destructionListener, align 8
  %tobool2 = icmp ne ptr %6, null
  br i1 %tobool2, label %if.then3, label %if.end5

if.then3:                                         ; preds = %while.body
  %m_destructionListener4 = getelementptr inbounds %class.b2World, ptr %this1, i32 0, i32 10
  %7 = load ptr, ptr %m_destructionListener4, align 8
  %8 = load ptr, ptr %je0, align 8
  %joint = getelementptr inbounds %struct.b2JointEdge, ptr %8, i32 0, i32 1
  %9 = load ptr, ptr %joint, align 8
  %vtable = load ptr, ptr %7, align 8
  %vfn = getelementptr inbounds ptr, ptr %vtable, i64 2
  %10 = load ptr, ptr %vfn, align 8
  call void %10(ptr noundef nonnull align 8 dereferenceable(8) %7, ptr noundef %9)
  br label %if.end5

if.end5:                                          ; preds = %if.then3, %while.body
  %11 = load ptr, ptr %je0, align 8
  %joint6 = getelementptr inbounds %struct.b2JointEdge, ptr %11, i32 0, i32 1
  %12 = load ptr, ptr %joint6, align 8
  call void @_ZN7b2World12DestroyJointEP7b2Joint(ptr noundef nonnull align 8 dereferenceable(103284) %this1, ptr noundef %12)
  %13 = load ptr, ptr %je, align 8
  %14 = load ptr, ptr %b.addr, align 8
  %m_jointList7 = getelementptr inbounds %class.b2Body, ptr %14, i32 0, i32 14
  store ptr %13, ptr %m_jointList7, align 8
  br label %while.cond, !llvm.loop !7

while.end:                                        ; preds = %while.cond
  %15 = load ptr, ptr %b.addr, align 8
  %m_jointList8 = getelementptr inbounds %class.b2Body, ptr %15, i32 0, i32 14
  store ptr null, ptr %m_jointList8, align 8
  %16 = load ptr, ptr %b.addr, align 8
  %m_contactList = getelementptr inbounds %class.b2Body, ptr %16, i32 0, i32 15
  %17 = load ptr, ptr %m_contactList, align 8
  store ptr %17, ptr %ce, align 8
  br label %while.cond9

while.cond9:                                      ; preds = %while.body11, %while.end
  %18 = load ptr, ptr %ce, align 8
  %tobool10 = icmp ne ptr %18, null
  br i1 %tobool10, label %while.body11, label %while.end13

while.body11:                                     ; preds = %while.cond9
  %19 = load ptr, ptr %ce, align 8
  store ptr %19, ptr %ce0, align 8
  %20 = load ptr, ptr %ce, align 8
  %next12 = getelementptr inbounds %struct.b2ContactEdge, ptr %20, i32 0, i32 3
  %21 = load ptr, ptr %next12, align 8
  store ptr %21, ptr %ce, align 8
  %m_contactManager = getelementptr inbounds %class.b2World, ptr %this1, i32 0, i32 2
  %22 = load ptr, ptr %ce0, align 8
  %contact = getelementptr inbounds %struct.b2ContactEdge, ptr %22, i32 0, i32 1
  %23 = load ptr, ptr %contact, align 8
  call void @_ZN16b2ContactManager7DestroyEP9b2Contact(ptr noundef nonnull align 8 dereferenceable(120) %m_contactManager, ptr noundef %23)
  br label %while.cond9, !llvm.loop !8

while.end13:                                      ; preds = %while.cond9
  %24 = load ptr, ptr %b.addr, align 8
  %m_contactList14 = getelementptr inbounds %class.b2Body, ptr %24, i32 0, i32 15
  store ptr null, ptr %m_contactList14, align 8
  %25 = load ptr, ptr %b.addr, align 8
  %m_fixtureList = getelementptr inbounds %class.b2Body, ptr %25, i32 0, i32 12
  %26 = load ptr, ptr %m_fixtureList, align 8
  store ptr %26, ptr %f, align 8
  br label %while.cond15

while.cond15:                                     ; preds = %if.end24, %while.end13
  %27 = load ptr, ptr %f, align 8
  %tobool16 = icmp ne ptr %27, null
  br i1 %tobool16, label %while.body17, label %while.end28

while.body17:                                     ; preds = %while.cond15
  %28 = load ptr, ptr %f, align 8
  store ptr %28, ptr %f0, align 8
  %29 = load ptr, ptr %f, align 8
  %m_next = getelementptr inbounds %class.b2Fixture, ptr %29, i32 0, i32 1
  %30 = load ptr, ptr %m_next, align 8
  store ptr %30, ptr %f, align 8
  %m_destructionListener18 = getelementptr inbounds %class.b2World, ptr %this1, i32 0, i32 10
  %31 = load ptr, ptr %m_destructionListener18, align 8
  %tobool19 = icmp ne ptr %31, null
  br i1 %tobool19, label %if.then20, label %if.end24

if.then20:                                        ; preds = %while.body17
  %m_destructionListener21 = getelementptr inbounds %class.b2World, ptr %this1, i32 0, i32 10
  %32 = load ptr, ptr %m_destructionListener21, align 8
  %33 = load ptr, ptr %f0, align 8
  %vtable22 = load ptr, ptr %32, align 8
  %vfn23 = getelementptr inbounds ptr, ptr %vtable22, i64 3
  %34 = load ptr, ptr %vfn23, align 8
  call void %34(ptr noundef nonnull align 8 dereferenceable(8) %32, ptr noundef %33)
  br label %if.end24

if.end24:                                         ; preds = %if.then20, %while.body17
  %35 = load ptr, ptr %f0, align 8
  %m_contactManager25 = getelementptr inbounds %class.b2World, ptr %this1, i32 0, i32 2
  %m_broadPhase = getelementptr inbounds %class.b2ContactManager, ptr %m_contactManager25, i32 0, i32 0
  call void @_ZN9b2Fixture14DestroyProxiesEP12b2BroadPhase(ptr noundef nonnull align 8 dereferenceable(80) %35, ptr noundef %m_broadPhase)
  %36 = load ptr, ptr %f0, align 8
  %m_blockAllocator = getelementptr inbounds %class.b2World, ptr %this1, i32 0, i32 0
  call void @_ZN9b2Fixture7DestroyEP16b2BlockAllocator(ptr noundef nonnull align 8 dereferenceable(80) %36, ptr noundef %m_blockAllocator)
  %m_blockAllocator26 = getelementptr inbounds %class.b2World, ptr %this1, i32 0, i32 0
  %37 = load ptr, ptr %f0, align 8
  call void @_ZN16b2BlockAllocator4FreeEPvi(ptr noundef nonnull align 8 dereferenceable(128) %m_blockAllocator26, ptr noundef %37, i32 noundef 80)
  %38 = load ptr, ptr %f, align 8
  %39 = load ptr, ptr %b.addr, align 8
  %m_fixtureList27 = getelementptr inbounds %class.b2Body, ptr %39, i32 0, i32 12
  store ptr %38, ptr %m_fixtureList27, align 8
  %40 = load ptr, ptr %b.addr, align 8
  %m_fixtureCount = getelementptr inbounds %class.b2Body, ptr %40, i32 0, i32 13
  %41 = load i32, ptr %m_fixtureCount, align 8
  %sub = sub nsw i32 %41, 1
  store i32 %sub, ptr %m_fixtureCount, align 8
  br label %while.cond15, !llvm.loop !9

while.end28:                                      ; preds = %while.cond15
  %42 = load ptr, ptr %b.addr, align 8
  %m_fixtureList29 = getelementptr inbounds %class.b2Body, ptr %42, i32 0, i32 12
  store ptr null, ptr %m_fixtureList29, align 8
  %43 = load ptr, ptr %b.addr, align 8
  %m_fixtureCount30 = getelementptr inbounds %class.b2Body, ptr %43, i32 0, i32 13
  store i32 0, ptr %m_fixtureCount30, align 8
  %44 = load ptr, ptr %b.addr, align 8
  %m_prev = getelementptr inbounds %class.b2Body, ptr %44, i32 0, i32 10
  %45 = load ptr, ptr %m_prev, align 8
  %tobool31 = icmp ne ptr %45, null
  br i1 %tobool31, label %if.then32, label %if.end36

if.then32:                                        ; preds = %while.end28
  %46 = load ptr, ptr %b.addr, align 8
  %m_next33 = getelementptr inbounds %class.b2Body, ptr %46, i32 0, i32 11
  %47 = load ptr, ptr %m_next33, align 8
  %48 = load ptr, ptr %b.addr, align 8
  %m_prev34 = getelementptr inbounds %class.b2Body, ptr %48, i32 0, i32 10
  %49 = load ptr, ptr %m_prev34, align 8
  %m_next35 = getelementptr inbounds %class.b2Body, ptr %49, i32 0, i32 11
  store ptr %47, ptr %m_next35, align 8
  br label %if.end36

if.end36:                                         ; preds = %if.then32, %while.end28
  %50 = load ptr, ptr %b.addr, align 8
  %m_next37 = getelementptr inbounds %class.b2Body, ptr %50, i32 0, i32 11
  %51 = load ptr, ptr %m_next37, align 8
  %tobool38 = icmp ne ptr %51, null
  br i1 %tobool38, label %if.then39, label %if.end43

if.then39:                                        ; preds = %if.end36
  %52 = load ptr, ptr %b.addr, align 8
  %m_prev40 = getelementptr inbounds %class.b2Body, ptr %52, i32 0, i32 10
  %53 = load ptr, ptr %m_prev40, align 8
  %54 = load ptr, ptr %b.addr, align 8
  %m_next41 = getelementptr inbounds %class.b2Body, ptr %54, i32 0, i32 11
  %55 = load ptr, ptr %m_next41, align 8
  %m_prev42 = getelementptr inbounds %class.b2Body, ptr %55, i32 0, i32 10
  store ptr %53, ptr %m_prev42, align 8
  br label %if.end43

if.end43:                                         ; preds = %if.then39, %if.end36
  %56 = load ptr, ptr %b.addr, align 8
  %m_bodyList = getelementptr inbounds %class.b2World, ptr %this1, i32 0, i32 3
  %57 = load ptr, ptr %m_bodyList, align 8
  %cmp = icmp eq ptr %56, %57
  br i1 %cmp, label %if.then44, label %if.end47

if.then44:                                        ; preds = %if.end43
  %58 = load ptr, ptr %b.addr, align 8
  %m_next45 = getelementptr inbounds %class.b2Body, ptr %58, i32 0, i32 11
  %59 = load ptr, ptr %m_next45, align 8
  %m_bodyList46 = getelementptr inbounds %class.b2World, ptr %this1, i32 0, i32 3
  store ptr %59, ptr %m_bodyList46, align 8
  br label %if.end47

if.end47:                                         ; preds = %if.then44, %if.end43
  %m_bodyCount = getelementptr inbounds %class.b2World, ptr %this1, i32 0, i32 5
  %60 = load i32, ptr %m_bodyCount, align 8
  %dec = add nsw i32 %60, -1
  store i32 %dec, ptr %m_bodyCount, align 8
  %61 = load ptr, ptr %b.addr, align 8
  call void @_ZN6b2BodyD1Ev(ptr noundef nonnull align 8 dereferenceable(184) %61) #9
  %m_blockAllocator48 = getelementptr inbounds %class.b2World, ptr %this1, i32 0, i32 0
  %62 = load ptr, ptr %b.addr, align 8
  call void @_ZN16b2BlockAllocator4FreeEPvi(ptr noundef nonnull align 8 dereferenceable(128) %m_blockAllocator48, ptr noundef %62, i32 noundef 184)
  br label %return

return:                                           ; preds = %if.end47, %if.then
  ret void
}