; Function Attrs: mustprogress uwtable
define void @_ZN7b2World11DestroyBodyEP6b2Body(ptr noundef nonnull align 8 dereferenceable(103284) %this, ptr noundef %b) local_unnamed_addr #0 align 2 {
entry:
  %m_locked.i = getelementptr inbounds nuw i8, ptr %this, i64 103245
  %0 = load i8, ptr %m_locked.i, align 1
  %tobool.i = trunc i8 %0 to i1
  br i1 %tobool.i, label %return, label %if.end

if.end:                                           ; preds = %entry
  %m_jointList = getelementptr inbounds nuw i8, ptr %b, i64 128
  %1 = load ptr, ptr %m_jointList, align 8
  %tobool.not35 = icmp eq ptr %1, null
  br i1 %tobool.not35, label %while.end, label %while.body.lr.ph

while.body.lr.ph:                                 ; preds = %if.end
  %m_destructionListener = getelementptr inbounds nuw i8, ptr %this, i64 103224
  br label %while.body

while.body:                                       ; preds = %while.body.lr.ph, %if.end5
  %je.036 = phi ptr [ %1, %while.body.lr.ph ], [ %2, %if.end5 ]
  %next = getelementptr inbounds nuw i8, ptr %je.036, i64 24
  %2 = load ptr, ptr %next, align 8
  %3 = load ptr, ptr %m_destructionListener, align 8
  %tobool2.not = icmp eq ptr %3, null
  br i1 %tobool2.not, label %if.end5, label %if.then3

if.then3:                                         ; preds = %while.body
  %joint = getelementptr inbounds nuw i8, ptr %je.036, i64 8
  %4 = load ptr, ptr %joint, align 8
  %vtable = load ptr, ptr %3, align 8
  %vfn = getelementptr inbounds nuw i8, ptr %vtable, i64 16
  %5 = load ptr, ptr %vfn, align 8
  tail call void %5(ptr noundef nonnull align 8 dereferenceable(8) %3, ptr noundef %4)
  br label %if.end5

if.end5:                                          ; preds = %if.then3, %while.body
  %joint6 = getelementptr inbounds nuw i8, ptr %je.036, i64 8
  %6 = load ptr, ptr %joint6, align 8
  tail call void @_ZN7b2World12DestroyJointEP7b2Joint(ptr noundef nonnull align 8 dereferenceable(103284) %this, ptr noundef %6)
  store ptr %2, ptr %m_jointList, align 8
  %tobool.not = icmp eq ptr %2, null
  br i1 %tobool.not, label %while.end, label %while.body, !llvm.loop !7

while.end:                                        ; preds = %if.end5, %if.end
  store ptr null, ptr %m_jointList, align 8
  %m_contactList = getelementptr inbounds nuw i8, ptr %b, i64 136
  %7 = load ptr, ptr %m_contactList, align 8
  %tobool10.not37 = icmp eq ptr %7, null
  br i1 %tobool10.not37, label %while.end13, label %while.body11.lr.ph

while.body11.lr.ph:                               ; preds = %while.end
  %m_contactManager = getelementptr inbounds nuw i8, ptr %this, i64 103064
  br label %while.body11

while.body11:                                     ; preds = %while.body11.lr.ph, %while.body11
  %ce.038 = phi ptr [ %7, %while.body11.lr.ph ], [ %8, %while.body11 ]
  %next12 = getelementptr inbounds nuw i8, ptr %ce.038, i64 24
  %8 = load ptr, ptr %next12, align 8
  %contact = getelementptr inbounds nuw i8, ptr %ce.038, i64 8
  %9 = load ptr, ptr %contact, align 8
  tail call void @_ZN16b2ContactManager7DestroyEP9b2Contact(ptr noundef nonnull align 8 dereferenceable(120) %m_contactManager, ptr noundef %9)
  %tobool10.not = icmp eq ptr %8, null
  br i1 %tobool10.not, label %while.end13, label %while.body11, !llvm.loop !8

while.end13:                                      ; preds = %while.body11, %while.end
  store ptr null, ptr %m_contactList, align 8
  %m_fixtureList = getelementptr inbounds nuw i8, ptr %b, i64 112
  %10 = load ptr, ptr %m_fixtureList, align 8
  %tobool16.not39 = icmp eq ptr %10, null
  br i1 %tobool16.not39, label %while.end28, label %while.body17.lr.ph

while.body17.lr.ph:                               ; preds = %while.end13
  %m_destructionListener18 = getelementptr inbounds nuw i8, ptr %this, i64 103224
  %m_contactManager25 = getelementptr inbounds nuw i8, ptr %this, i64 103064
  %m_fixtureCount = getelementptr inbounds nuw i8, ptr %b, i64 120
  br label %while.body17

while.body17:                                     ; preds = %while.body17.lr.ph, %if.end24
  %f.040 = phi ptr [ %10, %while.body17.lr.ph ], [ %11, %if.end24 ]
  %m_next = getelementptr inbounds nuw i8, ptr %f.040, i64 8
  %11 = load ptr, ptr %m_next, align 8
  %12 = load ptr, ptr %m_destructionListener18, align 8
  %tobool19.not = icmp eq ptr %12, null
  br i1 %tobool19.not, label %if.end24, label %if.then20

if.then20:                                        ; preds = %while.body17
  %vtable22 = load ptr, ptr %12, align 8
  %vfn23 = getelementptr inbounds nuw i8, ptr %vtable22, i64 24
  %13 = load ptr, ptr %vfn23, align 8
  tail call void %13(ptr noundef nonnull align 8 dereferenceable(8) %12, ptr noundef nonnull %f.040)
  br label %if.end24

if.end24:                                         ; preds = %if.then20, %while.body17
  tail call void @_ZN9b2Fixture14DestroyProxiesEP12b2BroadPhase(ptr noundef nonnull align 8 dereferenceable(80) %f.040, ptr noundef nonnull %m_contactManager25)
  tail call void @_ZN9b2Fixture7DestroyEP16b2BlockAllocator(ptr noundef nonnull align 8 dereferenceable(80) %f.040, ptr noundef nonnull %this)
  tail call void @_ZN16b2BlockAllocator4FreeEPvi(ptr noundef nonnull align 8 dereferenceable(128) %this, ptr noundef nonnull %f.040, i32 noundef 80)
  store ptr %11, ptr %m_fixtureList, align 8
  %14 = load i32, ptr %m_fixtureCount, align 8
  %sub = add nsw i32 %14, -1
  store i32 %sub, ptr %m_fixtureCount, align 8
  %tobool16.not = icmp eq ptr %11, null
  br i1 %tobool16.not, label %while.end28, label %while.body17, !llvm.loop !9

while.end28:                                      ; preds = %if.end24, %while.end13
  store ptr null, ptr %m_fixtureList, align 8
  %m_fixtureCount30 = getelementptr inbounds nuw i8, ptr %b, i64 120
  store i32 0, ptr %m_fixtureCount30, align 8
  %m_prev = getelementptr inbounds nuw i8, ptr %b, i64 96
  %15 = load ptr, ptr %m_prev, align 8
  %tobool31.not = icmp eq ptr %15, null
  %m_next37.phi.trans.insert = getelementptr inbounds nuw i8, ptr %b, i64 104
  %.pre = load ptr, ptr %m_next37.phi.trans.insert, align 8
  br i1 %tobool31.not, label %if.end36, label %if.then32

if.then32:                                        ; preds = %while.end28
  %m_next35 = getelementptr inbounds nuw i8, ptr %15, i64 104
  store ptr %.pre, ptr %m_next35, align 8
  br label %if.end36

if.end36:                                         ; preds = %while.end28, %if.then32
  %m_next37 = getelementptr inbounds nuw i8, ptr %b, i64 104
  %tobool38.not = icmp eq ptr %.pre, null
  br i1 %tobool38.not, label %if.end43, label %if.then39

if.then39:                                        ; preds = %if.end36
  %16 = load ptr, ptr %m_prev, align 8
  %m_prev42 = getelementptr inbounds nuw i8, ptr %.pre, i64 96
  store ptr %16, ptr %m_prev42, align 8
  br label %if.end43

if.end43:                                         ; preds = %if.then39, %if.end36
  %m_bodyList = getelementptr inbounds nuw i8, ptr %this, i64 103184
  %17 = load ptr, ptr %m_bodyList, align 8
  %cmp = icmp eq ptr %b, %17
  br i1 %cmp, label %if.then44, label %if.end47

if.then44:                                        ; preds = %if.end43
  %18 = load ptr, ptr %m_next37, align 8
  store ptr %18, ptr %m_bodyList, align 8
  br label %if.end47

if.end47:                                         ; preds = %if.then44, %if.end43
  %m_bodyCount = getelementptr inbounds nuw i8, ptr %this, i64 103200
  %19 = load i32, ptr %m_bodyCount, align 8
  %dec = add nsw i32 %19, -1
  store i32 %dec, ptr %m_bodyCount, align 8
  tail call void @_ZN6b2BodyD1Ev(ptr noundef nonnull align 8 dereferenceable(184) %b) #16
  tail call void @_ZN16b2BlockAllocator4FreeEPvi(ptr noundef nonnull align 8 dereferenceable(128) %this, ptr noundef nonnull %b, i32 noundef 184)
  br label %return

return:                                           ; preds = %entry, %if.end47
  ret void
}